target datalayout = "e-m:e-p270:32:32-p271:32:32-p272:64:64-i64:64-i128:128-f80:128-n8:16:32:64-S128"
target triple = "x86_64-unknown-linux-gnu"

%"class.boost::detail::shared_count" = type { ptr }
%"class.boost::shared_ptr.50" = type { ptr, %"class.boost::detail::shared_count" }
%"class.QuantLib::Array" = type { %"class.std::unique_ptr", i64 }
%"class.std::unique_ptr" = type { %"struct.std::__uniq_ptr_data" }
%"struct.std::__uniq_ptr_data" = type { %"class.std::__uniq_ptr_impl" }
%"class.std::__uniq_ptr_impl" = type { %"class.std::tuple" }
%"class.std::tuple" = type { %"struct.std::_Tuple_impl" }
%"struct.std::_Tuple_impl" = type { %"struct.std::_Head_base.34" }
%"struct.std::_Head_base.34" = type { ptr }
%"class.QuantLib::Constraint" = type { %"class.boost::shared_ptr.48" }
%"class.boost::shared_ptr.48" = type { ptr, %"class.boost::detail::shared_count" }
%"class.QuantLib::ExponentialSplinesFitting" = type { %"class.QuantLib::FittedBondDiscountCurve::FittingMethod", i32, double }
%"class.QuantLib::FittedBondDiscountCurve::FittingMethod" = type { ptr, i8, ptr, %"class.QuantLib::Array", %"class.QuantLib::Array", %"class.boost::shared_ptr.49", %"class.QuantLib::Array", %"class.QuantLib::Array", i8, i32, double, i32, %"class.boost::shared_ptr.50", %"class.QuantLib::Constraint", double, double }
%"class.boost::shared_ptr.49" = type { ptr, %"class.boost::detail::shared_count" }
%"class.QuantLib::Null" = type { i8 }

; Function Attrs: mustprogress nounwind uwtable
define linkonce_odr noundef nonnull align 8 dereferenceable(8) ptr @_ZNSt10_Head_baseILm0EPdLb0EE7_M_headERKS1_(ptr noundef nonnull align 8 dereferenceable(8) %__b) #5 comdat align 2 {
entry:
  %__b.addr = alloca ptr, align 8
  store ptr %__b, ptr %__b.addr, align 8, !tbaa !3
  %0 = load ptr, ptr %__b.addr, align 8, !tbaa !3
  %_M_head_impl = getelementptr inbounds nuw %"struct.std::_Head_base.34", ptr %0, i32 0, i32 0
  ret ptr %_M_head_impl
}

; Function Attrs: mustprogress nounwind uwtable
define linkonce_odr noundef nonnull align 8 dereferenceable(8) ptr @_ZNSt11_Tuple_implILm0EJPdSt14default_deleteIA_dEEE7_M_headERKS4_(ptr noundef nonnull align 8 dereferenceable(8) %__t) #5 comdat align 2 {
entry:
  %__t.addr = alloca ptr, align 8
  store ptr %__t, ptr %__t.addr, align 8, !tbaa !3
  %0 = load ptr, ptr %__t.addr, align 8, !tbaa !3
  %call = call noundef nonnull align 8 dereferenceable(8) ptr @_ZNSt10_Head_baseILm0EPdLb0EE7_M_headERKS1_(ptr noundef nonnull align 8 dereferenceable(8) %0) #17
  ret ptr %call
}

; Function Attrs: mustprogress nounwind uwtable
define linkonce_odr noundef nonnull align 8 dereferenceable(8) ptr @_ZSt12__get_helperILm0EPdJSt14default_deleteIA_dEEERKT0_RKSt11_Tuple_implIXT_EJS4_DpT1_EE(ptr noundef nonnull align 8 dereferenceable(8) %__t) #5 comdat {
entry:
  %__t.addr = alloca ptr, align 8
  store ptr %__t, ptr %__t.addr, align 8, !tbaa !3
  %0 = load ptr, ptr %__t.addr, align 8, !tbaa !3
  %call = call noundef nonnull align 8 dereferenceable(8) ptr @_ZNSt11_Tuple_implILm0EJPdSt14default_deleteIA_dEEE7_M_headERKS4_(ptr noundef nonnull align 8 dereferenceable(8) %0) #17
  ret ptr %call
}

; Function Attrs: mustprogress nounwind uwtable
define linkonce_odr noundef nonnull align 8 dereferenceable(8) ptr @_ZSt3getILm0EJPdSt14default_deleteIA_dEEERKNSt13tuple_elementIXT_ESt5tupleIJDpT0_EEE4typeERKS8_(ptr noundef nonnull align 8 dereferenceable(8) %__t) #5 comdat {
entry:
  %__t.addr = alloca ptr, align 8
  store ptr %__t, ptr %__t.addr, align 8, !tbaa !3
  %0 = load ptr, ptr %__t.addr, align 8, !tbaa !3
  %call = call noundef nonnull align 8 dereferenceable(8) ptr @_ZSt12__get_helperILm0EPdJSt14default_deleteIA_dEEERKT0_RKSt11_Tuple_implIXT_EJS4_DpT1_EE(ptr noundef nonnull align 8 dereferenceable(8) %0) #17
  ret ptr %call
}

; Function Attrs: mustprogress nounwind uwtable
define linkonce_odr noundef ptr @_ZNKSt15__uniq_ptr_implIdSt14default_deleteIA_dEE6_M_ptrEv(ptr noundef nonnull align 8 dereferenceable(8) %this) #5 comdat align 2 {
entry:
  %this.addr = alloca ptr, align 8
  store ptr %this, ptr %this.addr, align 8, !tbaa !3
  %this1 = load ptr, ptr %this.addr, align 8
  %_M_t = getelementptr inbounds nuw %"class.std::__uniq_ptr_impl", ptr %this1, i32 0, i32 0
  %call = call noundef nonnull align 8 dereferenceable(8) ptr @_ZSt3getILm0EJPdSt14default_deleteIA_dEEERKNSt13tuple_elementIXT_ESt5tupleIJDpT0_EEE4typeERKS8_(ptr noundef nonnull align 8 dereferenceable(8) %_M_t) #17
  %0 = load ptr, ptr %call, align 8, !tbaa !3
  ret ptr %0
}

; Function Attrs: mustprogress nounwind uwtable
define linkonce_odr noundef float @_ZNSt14numeric_limitsIfE3maxEv() #5 comdat align 2 {
entry:
  ret float 0x47EFFFFFE0000000
}

; Function Attrs: mustprogress nounwind uwtable
define linkonce_odr noundef ptr @_ZNKSt10unique_ptrIA_dSt14default_deleteIS0_EE3getEv(ptr noundef nonnull align 8 dereferenceable(8) %this) #5 comdat align 2 {
entry:
  %this.addr = alloca ptr, align 8
  store ptr %this, ptr %this.addr, align 8, !tbaa !3
  %this1 = load ptr, ptr %this.addr, align 8
  %_M_t = getelementptr inbounds nuw %"class.std::unique_ptr", ptr %this1, i32 0, i32 0
  %call = call noundef ptr @_ZNKSt15__uniq_ptr_implIdSt14default_deleteIA_dEE6_M_ptrEv(ptr noundef nonnull align 8 dereferenceable(8) %_M_t) #17
  ret ptr %call
}

; Function Attrs: mustprogress nounwind uwtable
define linkonce_odr noundef float @_ZN8QuantLib6detail17FloatingPointNullILb1EE9nullValueEv() #5 comdat align 2 {
entry:
  %call = call noundef float @_ZNSt14numeric_limitsIfE3maxEv() #17
  ret float %call
}

; Function Attrs: inlinehint mustprogress nounwind uwtable
define linkonce_odr noundef double @_ZNK8QuantLib5ArrayixEm(ptr noundef nonnull align 8 dereferenceable(16) %this, i64 noundef %i) #7 comdat align 2 {
entry:
  %this.addr = alloca ptr, align 8
  %i.addr = alloca i64, align 8
  store ptr %this, ptr %this.addr, align 8, !tbaa !3
  store i64 %i, ptr %i.addr, align 8, !tbaa !13
  %this1 = load ptr, ptr %this.addr, align 8
  %data_ = getelementptr inbounds nuw %"class.QuantLib::Array", ptr %this1, i32 0, i32 0
  %call = call noundef ptr @_ZNKSt10unique_ptrIA_dSt14default_deleteIS0_EE3getEv(ptr noundef nonnull align 8 dereferenceable(8) %data_) #17
  %0 = load i64, ptr %i.addr, align 8, !tbaa !13
  %arrayidx = getelementptr inbounds nuw double, ptr %call, i64 %0
  %1 = load double, ptr %arrayidx, align 8, !tbaa !11
  ret double %1
}

; Function Attrs: mustprogress uwtable
define linkonce_odr noundef double @_ZNK8QuantLib4NullIdEcvdEv(ptr noundef nonnull align 1 dereferenceable(1) %this) #3 comdat align 2 {
entry:
  %this.addr = alloca ptr, align 8
  store ptr %this, ptr %this.addr, align 8, !tbaa !3
  %call = call noundef float @_ZN8QuantLib6detail17FloatingPointNullILb1EE9nullValueEv()
  %conv = fpext float %call to double
  ret double %conv
}

; Function Attrs: mustprogress uwtable
define noundef double @_ZNK8QuantLib25ExponentialSplinesFitting16discountFunctionERKNS_5ArrayEd(ptr noundef nonnull align 8 dereferenceable(192) %this, ptr noundef nonnull align 8 dereferenceable(16) %x, double noundef %t) unnamed_addr #3 align 2 {
entry:
  %this.addr = alloca ptr, align 8
  %x.addr = alloca ptr, align 8
  %t.addr = alloca double, align 8
  %d = alloca double, align 8
  %N = alloca i64, align 8
  %kappa = alloca double, align 8
  %ref.tmp = alloca %"class.QuantLib::Null", align 1
  %coeff = alloca double, align 8
  %i = alloca i64, align 8
  %i11 = alloca i64, align 8
  store ptr %this, ptr %this.addr, align 8, !tbaa !3
  store ptr %x, ptr %x.addr, align 8, !tbaa !3
  store double %t, ptr %t.addr, align 8, !tbaa !11
  %this1 = load ptr, ptr %this.addr, align 8
  call void @llvm.lifetime.start.p0(i64 8, ptr %d) #17
  store double 0.000000e+00, ptr %d, align 8, !tbaa !11
  call void @llvm.lifetime.start.p0(i64 8, ptr %N) #17
  %vtable = load ptr, ptr %this1, align 8, !tbaa !7
  %vfn = getelementptr inbounds ptr, ptr %vtable, i64 2
  %0 = load ptr, ptr %vfn, align 8
  %call = call noundef i64 %0(ptr noundef nonnull align 8 dereferenceable(192) %this1)
  store i64 %call, ptr %N, align 8, !tbaa !13
  call void @llvm.lifetime.start.p0(i64 8, ptr %kappa) #17
  %fixedKappa_ = getelementptr inbounds nuw %"class.QuantLib::ExponentialSplinesFitting", ptr %this1, i32 0, i32 2
  %1 = load double, ptr %fixedKappa_, align 8, !tbaa !34
  call void @llvm.lifetime.start.p0(i64 1, ptr %ref.tmp) #17
  %call2 = call noundef double @_ZNK8QuantLib4NullIdEcvdEv(ptr noundef nonnull align 1 dereferenceable(1) %ref.tmp)
  %cmp = fcmp une double %1, %call2
  br i1 %cmp, label %cond.true, label %cond.false

cond.true:                                        ; preds = %entry
  %fixedKappa_3 = getelementptr inbounds nuw %"class.QuantLib::ExponentialSplinesFitting", ptr %this1, i32 0, i32 2
  %2 = load double, ptr %fixedKappa_3, align 8, !tbaa !34
  br label %cond.end

cond.false:                                       ; preds = %entry
  %3 = load ptr, ptr %x.addr, align 8, !tbaa !3
  %4 = load i64, ptr %N, align 8, !tbaa !13
  %sub = sub i64 %4, 1
  %call4 = call noundef double @_ZNK8QuantLib5ArrayixEm(ptr noundef nonnull align 8 dereferenceable(16) %3, i64 noundef %sub)
  br label %cond.end

cond.end:                                         ; preds = %cond.false, %cond.true
  %cond = phi double [ %2, %cond.true ], [ %call4, %cond.false ]
  call void @llvm.lifetime.end.p0(i64 1, ptr %ref.tmp) #17
  store double %cond, ptr %kappa, align 8, !tbaa !11
  call void @llvm.lifetime.start.p0(i64 8, ptr %coeff) #17
  store double 0.000000e+00, ptr %coeff, align 8, !tbaa !11
  %constrainAtZero_ = getelementptr inbounds nuw %"class.QuantLib::FittedBondDiscountCurve::FittingMethod", ptr %this1, i32 0, i32 1
  %5 = load i8, ptr %constrainAtZero_, align 8, !tbaa !37, !range !15, !noundef !16
  %loadedv = trunc i8 %5 to i1
  br i1 %loadedv, label %if.else, label %if.then

if.then:                                          ; preds = %cond.end
  call void @llvm.lifetime.start.p0(i64 8, ptr %i) #17
  store i64 0, ptr %i, align 8, !tbaa !13
  br label %for.cond

for.cond:                                         ; preds = %for.inc, %if.then
  %6 = load i64, ptr %i, align 8, !tbaa !13
  %7 = load i64, ptr %N, align 8, !tbaa !13
  %sub5 = sub i64 %7, 1
  %cmp6 = icmp ult i64 %6, %sub5
  br i1 %cmp6, label %for.body, label %for.cond.cleanup

for.cond.cleanup:                                 ; preds = %for.cond
  call void @llvm.lifetime.end.p0(i64 8, ptr %i) #17
  br label %for.end

for.body:                                         ; preds = %for.cond
  %8 = load ptr, ptr %x.addr, align 8, !tbaa !3
  %9 = load i64, ptr %i, align 8, !tbaa !13
  %call7 = call noundef double @_ZNK8QuantLib5ArrayixEm(ptr noundef nonnull align 8 dereferenceable(16) %8, i64 noundef %9)
  %10 = load double, ptr %kappa, align 8, !tbaa !11
  %fneg = fneg double %10
  %11 = load i64, ptr %i, align 8, !tbaa !13
  %add = add i64 %11, 1
  %conv = uitofp i64 %add to double
  %mul = fmul double %fneg, %conv
  %12 = load double, ptr %t.addr, align 8, !tbaa !11
  %mul8 = fmul double %mul, %12
  %call9 = call double @exp(double noundef %mul8) #17, !tbaa !38
  %13 = load double, ptr %d, align 8, !tbaa !11
  %14 = call double @llvm.fmuladd.f64(double %call7, double %call9, double %13)
  store double %14, ptr %d, align 8, !tbaa !11
  br label %for.inc

for.inc:                                          ; preds = %for.body
  %15 = load i64, ptr %i, align 8, !tbaa !13
  %inc = add i64 %15, 1
  store i64 %inc, ptr %i, align 8, !tbaa !13
  br label %for.cond, !llvm.loop !39

for.end:                                          ; preds = %for.cond.cleanup
  br label %if.end

if.else:                                          ; preds = %cond.end
  call void @llvm.lifetime.start.p0(i64 8, ptr %i11) #17
  store i64 0, ptr %i11, align 8, !tbaa !13
  br label %for.cond12

for.cond12:                                       ; preds = %for.inc27, %if.else
  %16 = load i64, ptr %i11, align 8, !tbaa !13
  %17 = load i64, ptr %N, align 8, !tbaa !13
  %sub13 = sub i64 %17, 1
  %cmp14 = icmp ult i64 %16, %sub13
  br i1 %cmp14, label %for.body16, label %for.cond.cleanup15

for.cond.cleanup15:                               ; preds = %for.cond12
  call void @llvm.lifetime.end.p0(i64 8, ptr %i11) #17
  br label %for.end29

for.body16:                                       ; preds = %for.cond12
  %18 = load ptr, ptr %x.addr, align 8, !tbaa !3
  %19 = load i64, ptr %i11, align 8, !tbaa !13
  %call17 = call noundef double @_ZNK8QuantLib5ArrayixEm(ptr noundef nonnull align 8 dereferenceable(16) %18, i64 noundef %19)
  %20 = load double, ptr %kappa, align 8, !tbaa !11
  %fneg18 = fneg double %20
  %21 = load i64, ptr %i11, align 8, !tbaa !13
  %add19 = add i64 %21, 2
  %conv20 = uitofp i64 %add19 to double
  %mul21 = fmul double %fneg18, %conv20
  %22 = load double, ptr %t.addr, align 8, !tbaa !11
  %mul22 = fmul double %mul21, %22
  %call23 = call double @exp(double noundef %mul22) #17, !tbaa !38
  %23 = load double, ptr %d, align 8, !tbaa !11
  %24 = call double @llvm.fmuladd.f64(double %call17, double %call23, double %23)
  store double %24, ptr %d, align 8, !tbaa !11
  %25 = load ptr, ptr %x.addr, align 8, !tbaa !3
  %26 = load i64, ptr %i11, align 8, !tbaa !13
  %call25 = call noundef double @_ZNK8QuantLib5ArrayixEm(ptr noundef nonnull align 8 dereferenceable(16) %25, i64 noundef %26)
  %27 = load double, ptr %coeff, align 8, !tbaa !11
  %add26 = fadd double %27, %call25
  store double %add26, ptr %coeff, align 8, !tbaa !11
  br label %for.inc27

for.inc27:                                        ; preds = %for.body16
  %28 = load i64, ptr %i11, align 8, !tbaa !13
  %inc28 = add i64 %28, 1
  store i64 %inc28, ptr %i11, align 8, !tbaa !13
  br label %for.cond12, !llvm.loop !41

for.end29:                                        ; preds = %for.cond.cleanup15
  %29 = load double, ptr %coeff, align 8, !tbaa !11
  %sub30 = fsub double 1.000000e+00, %29
  store double %sub30, ptr %coeff, align 8, !tbaa !11
  %30 = load double, ptr %coeff, align 8, !tbaa !11
  %31 = load double, ptr %kappa, align 8, !tbaa !11
  %fneg31 = fneg double %31
  %32 = load double, ptr %t.addr, align 8, !tbaa !11
  %mul32 = fmul double %fneg31, %32
  %call33 = call double @exp(double noundef %mul32) #17, !tbaa !38
  %33 = load double, ptr %d, align 8, !tbaa !11
  %34 = call double @llvm.fmuladd.f64(double %30, double %call33, double %33)
  store double %34, ptr %d, align 8, !tbaa !11
  br label %if.end

if.end:                                           ; preds = %for.end29, %for.end
  %35 = load double, ptr %d, align 8, !tbaa !11
  call void @llvm.lifetime.end.p0(i64 8, ptr %coeff) #17
  call void @llvm.lifetime.end.p0(i64 8, ptr %kappa) #17
  call void @llvm.lifetime.end.p0(i64 8, ptr %N) #17
  call void @llvm.lifetime.end.p0(i64 8, ptr %d) #17
  ret double %35
}