; Function Attrs: mustprogress uwtable
define noundef double @_ZNK8QuantLib25ExponentialSplinesFitting16discountFunctionERKNS_5ArrayEd(ptr noundef nonnull align 8 dereferenceable(192) %this, ptr nocapture noundef nonnull readonly align 8 dereferenceable(16) %x, double noundef %t) unnamed_addr #3 align 2 {
entry:
  %vtable = load ptr, ptr %this, align 8, !tbaa !14
  %vfn = getelementptr inbounds i8, ptr %vtable, i64 16
  %0 = load ptr, ptr %vfn, align 8
  %call = tail call noundef i64 %0(ptr noundef nonnull align 8 dereferenceable(192) %this)
  %fixedKappa_ = getelementptr inbounds nuw i8, ptr %this, i64 184
  %1 = load double, ptr %fixedKappa_, align 8, !tbaa !40
  %cmp = fcmp une double %1, 0x47EFFFFFE0000000
  br i1 %cmp, label %cond.end, label %cond.false

cond.false:                                       ; preds = %entry
  %2 = load ptr, ptr %x, align 8, !tbaa !28
  %3 = getelementptr double, ptr %2, i64 %call
  %arrayidx.i = getelementptr i8, ptr %3, i64 -8
  %4 = load double, ptr %arrayidx.i, align 8, !tbaa !49
  br label %cond.end

cond.end:                                         ; preds = %entry, %cond.false
  %cond = phi double [ %4, %cond.false ], [ %1, %entry ]
  %constrainAtZero_ = getelementptr inbounds nuw i8, ptr %this, i64 8
  %5 = load i8, ptr %constrainAtZero_, align 8, !tbaa !41, !range !42, !noundef !43
  %loadedv = trunc nuw i8 %5 to i1
  %sub13 = add i64 %call, -1
  %cmp1428.not = icmp eq i64 %sub13, 0
  br i1 %loadedv, label %for.cond12.preheader, label %for.cond.preheader

for.cond.preheader:                               ; preds = %cond.end
  br i1 %cmp1428.not, label %if.end, label %for.body.lr.ph

for.body.lr.ph:                                   ; preds = %for.cond.preheader
  %6 = load ptr, ptr %x, align 8, !tbaa !28
  %fneg = fneg double %cond
  br label %for.body

for.cond12.preheader:                             ; preds = %cond.end
  br i1 %cmp1428.not, label %for.cond12.preheader.for.cond.cleanup15_crit_edge, label %for.body16.lr.ph

for.cond12.preheader.for.cond.cleanup15_crit_edge: ; preds = %for.cond12.preheader
  %.pre = fneg double %cond
  br label %for.cond.cleanup15

for.body16.lr.ph:                                 ; preds = %for.cond12.preheader
  %7 = load ptr, ptr %x, align 8, !tbaa !28
  %fneg18 = fneg double %cond
  br label %for.body16

for.body:                                         ; preds = %for.body.lr.ph, %for.body
  %i.027 = phi i64 [ 0, %for.body.lr.ph ], [ %add, %for.body ]
  %d.026 = phi double [ 0.000000e+00, %for.body.lr.ph ], [ %9, %for.body ]
  %arrayidx.i22 = getelementptr inbounds nuw double, ptr %6, i64 %i.027
  %8 = load double, ptr %arrayidx.i22, align 8, !tbaa !49
  %add = add nuw i64 %i.027, 1
  %conv = uitofp i64 %add to double
  %mul = fmul double %fneg, %conv
  %mul8 = fmul double %t, %mul
  %call9 = tail call double @exp(double noundef %mul8) #22, !tbaa !50
  %9 = tail call double @llvm.fmuladd.f64(double %8, double %call9, double %d.026)
  %exitcond.not = icmp eq i64 %add, %sub13
  br i1 %exitcond.not, label %if.end, label %for.body, !llvm.loop !51

for.cond.cleanup15:                               ; preds = %for.body16, %for.cond12.preheader.for.cond.cleanup15_crit_edge
  %fneg31.pre-phi = phi double [ %.pre, %for.cond12.preheader.for.cond.cleanup15_crit_edge ], [ %fneg18, %for.body16 ]
  %d.2.lcssa = phi double [ 0.000000e+00, %for.cond12.preheader.for.cond.cleanup15_crit_edge ], [ %12, %for.body16 ]
  %coeff.0.lcssa = phi double [ 0.000000e+00, %for.cond12.preheader.for.cond.cleanup15_crit_edge ], [ %add26, %for.body16 ]
  %sub30 = fsub double 1.000000e+00, %coeff.0.lcssa
  %mul32 = fmul double %t, %fneg31.pre-phi
  %call33 = tail call double @exp(double noundef %mul32) #22, !tbaa !50
  %10 = tail call double @llvm.fmuladd.f64(double %sub30, double %call33, double %d.2.lcssa)
  br label %if.end

for.body16:                                       ; preds = %for.body16.lr.ph, %for.body16
  %i11.031 = phi i64 [ 0, %for.body16.lr.ph ], [ %inc28, %for.body16 ]
  %coeff.030 = phi double [ 0.000000e+00, %for.body16.lr.ph ], [ %add26, %for.body16 ]
  %d.229 = phi double [ 0.000000e+00, %for.body16.lr.ph ], [ %12, %for.body16 ]
  %arrayidx.i23 = getelementptr inbounds nuw double, ptr %7, i64 %i11.031
  %11 = load double, ptr %arrayidx.i23, align 8, !tbaa !49
  %add19 = add i64 %i11.031, 2
  %conv20 = uitofp i64 %add19 to double
  %mul21 = fmul double %fneg18, %conv20
  %mul22 = fmul double %t, %mul21
  %call23 = tail call double @exp(double noundef %mul22) #22, !tbaa !50
  %12 = tail call double @llvm.fmuladd.f64(double %11, double %call23, double %d.229)
  %add26 = fadd double %coeff.030, %11
  %inc28 = add nuw i64 %i11.031, 1
  %exitcond35.not = icmp eq i64 %inc28, %sub13
  br i1 %exitcond35.not, label %for.cond.cleanup15, label %for.body16, !llvm.loop !53

if.end:                                           ; preds = %for.body, %for.cond.preheader, %for.cond.cleanup15
  %d.1 = phi double [ %10, %for.cond.cleanup15 ], [ 0.000000e+00, %for.cond.preheader ], [ %9, %for.body ]
  ret double %d.1
}